target datalayout = "e-m:e-p270:32:32-p271:32:32-p272:64:64-i64:64-i128:128-f80:128-n8:16:32:64-S128"
target triple = "x86_64-pc-linux-gnu"

%struct.statement = type { i32, ptr, ptr, ptr, i32, i8, i32, i8, ptr, ptr, ptr, i32, ptr, ptr, ptr, ptr }

; Function Attrs: nounwind uwtable
define internal zeroext i1 @insert_tobeinserted(i32 noundef %0, i32 noundef %1, ptr noundef %2, ptr noundef %3) #0 {
  %5 = alloca i1, align 1
  %6 = alloca i32, align 4
  %7 = alloca i32, align 4
  %8 = alloca ptr, align 8
  %9 = alloca ptr, align 8
  %10 = alloca ptr, align 8
  %11 = alloca i32, align 4
  store i32 %0, ptr %6, align 4
  store i32 %1, ptr %7, align 4
  store ptr %2, ptr %8, align 8
  store ptr %3, ptr %9, align 8
  call void @llvm.lifetime.start.p0(i64 8, ptr %10) #10
  %12 = load ptr, ptr %8, align 8
  %13 = getelementptr inbounds nuw %struct.statement, ptr %12, i32 0, i32 1
  %14 = load ptr, ptr %13, align 8
  %15 = call i64 @strlen(ptr noundef %14) #11
  %16 = load ptr, ptr %9, align 8
  %17 = call i64 @strlen(ptr noundef %16) #11
  %18 = add i64 %15, %17
  %19 = add i64 %18, 1
  %20 = load ptr, ptr %8, align 8
  %21 = getelementptr inbounds nuw %struct.statement, ptr %20, i32 0, i32 0
  %22 = load i32, ptr %21, align 8
  %23 = call ptr @ecpg_alloc(i64 noundef %19, i32 noundef %22)
  store ptr %23, ptr %10, align 8
  %24 = icmp ne ptr %23, null
  br i1 %24, label %27, label %25

25:                                               ; preds = %4
  %26 = load ptr, ptr %9, align 8
  call void @ecpg_free(ptr noundef %26)
  store i1 false, ptr %5, align 1
  store i32 1, ptr %11, align 4
  br label %59

27:                                               ; preds = %4
  %28 = load ptr, ptr %10, align 8
  %29 = load ptr, ptr %8, align 8
  %30 = getelementptr inbounds nuw %struct.statement, ptr %29, i32 0, i32 1
  %31 = load ptr, ptr %30, align 8
  %32 = call ptr @strcpy(ptr noundef %28, ptr noundef %31) #10
  %33 = load ptr, ptr %10, align 8
  %34 = load i32, ptr %6, align 4
  %35 = sext i32 %34 to i64
  %36 = getelementptr inbounds i8, ptr %33, i64 %35
  %37 = getelementptr inbounds i8, ptr %36, i64 -1
  %38 = load ptr, ptr %9, align 8
  %39 = call ptr @strcpy(ptr noundef %37, ptr noundef %38) #10
  %40 = load ptr, ptr %10, align 8
  %41 = load ptr, ptr %8, align 8
  %42 = getelementptr inbounds nuw %struct.statement, ptr %41, i32 0, i32 1
  %43 = load ptr, ptr %42, align 8
  %44 = load i32, ptr %6, align 4
  %45 = sext i32 %44 to i64
  %46 = getelementptr inbounds i8, ptr %43, i64 %45
  %47 = load i32, ptr %7, align 4
  %48 = sext i32 %47 to i64
  %49 = getelementptr inbounds i8, ptr %46, i64 %48
  %50 = getelementptr inbounds i8, ptr %49, i64 -1
  %51 = call ptr @strcat(ptr noundef %40, ptr noundef %50) #10
  %52 = load ptr, ptr %8, align 8
  %53 = getelementptr inbounds nuw %struct.statement, ptr %52, i32 0, i32 1
  %54 = load ptr, ptr %53, align 8
  call void @ecpg_free(ptr noundef %54)
  %55 = load ptr, ptr %10, align 8
  %56 = load ptr, ptr %8, align 8
  %57 = getelementptr inbounds nuw %struct.statement, ptr %56, i32 0, i32 1
  store ptr %55, ptr %57, align 8
  %58 = load ptr, ptr %9, align 8
  call void @ecpg_free(ptr noundef %58)
  store i1 true, ptr %5, align 1
  store i32 1, ptr %11, align 4
  br label %59

59:                                               ; preds = %27, %25
  call void @llvm.lifetime.end.p0(i64 8, ptr %10) #10
  %60 = load i1, ptr %5, align 1
  ret i1 %60
}