; Function Attrs: nounwind uwtable
define internal fastcc noundef zeroext i1 @insert_tobeinserted(i32 noundef range(i32 1, 0) %0, i32 noundef range(i32 1, 3) %1, ptr noundef captures(none) %2, ptr noundef %3) unnamed_addr #0 {
  %5 = getelementptr inbounds nuw i8, ptr %2, i64 8
  %6 = load ptr, ptr %5, align 8
  %7 = tail call i64 @strlen(ptr noundef nonnull dereferenceable(1) %6) #15
  %8 = tail call i64 @strlen(ptr noundef nonnull dereferenceable(1) %3) #15
  %9 = add i64 %7, 1
  %10 = add i64 %9, %8
  %11 = load i32, ptr %2, align 8
  %12 = tail call ptr @ecpg_alloc(i64 noundef %10, i32 noundef %11) #14
  %.not = icmp ne ptr %12, null
  br i1 %.not, label %13, label %27

13:                                               ; preds = %4
  %14 = load ptr, ptr %5, align 8
  %15 = tail call ptr @strcpy(ptr noundef nonnull dereferenceable(1) %12, ptr noundef nonnull dereferenceable(1) %14) #14
  %16 = sext i32 %0 to i64
  %17 = getelementptr inbounds i8, ptr %12, i64 %16
  %18 = getelementptr inbounds i8, ptr %17, i64 -1
  %19 = tail call ptr @strcpy(ptr noundef nonnull dereferenceable(1) %18, ptr noundef nonnull dereferenceable(1) %3) #14
  %20 = load ptr, ptr %5, align 8
  %21 = getelementptr inbounds i8, ptr %20, i64 %16
  %22 = zext nneg i32 %1 to i64
  %23 = getelementptr inbounds nuw i8, ptr %21, i64 %22
  %24 = getelementptr inbounds i8, ptr %23, i64 -1
  %25 = tail call ptr @strcat(ptr noundef nonnull dereferenceable(1) %12, ptr noundef nonnull dereferenceable(1) %24) #14
  %26 = load ptr, ptr %5, align 8
  tail call void @ecpg_free(ptr noundef %26) #14
  store ptr %12, ptr %5, align 8
  br label %27

27:                                               ; preds = %4, %13
  tail call void @ecpg_free(ptr noundef nonnull %3) #14
  ret i1 %.not
}